target datalayout = "e-m:e-p270:32:32-p271:32:32-p272:64:64-i64:64-i128:128-f80:128-n8:16:32:64-S128"
target triple = "x86_64-pc-linux-gnu"

%struct.packing_data = type { ptr, ptr, i32, i32, ptr, i32, ptr, ptr, ptr, ptr, %union.pthread_mutex_t, ptr, i32, i32, i64, i64, ptr, ptr, ptr }
%union.pthread_mutex_t = type { %struct.__pthread_mutex_s }
%struct.__pthread_mutex_s = type { i32, i32, i32, i32, i32, i16, i16, %struct.__pthread_internal_list }
%struct.__pthread_internal_list = type { ptr, ptr }
%struct.hashmap = type { ptr, ptr, ptr, i32, i32, i32, i32, i8 }
%struct.object_entry = type { %struct.pack_idx_entry, ptr, i64, i32, i32, i32, i32, i32, [3 x i8], i8, i64 }
%struct.pack_idx_entry = type { %struct.object_id, i32, i64 }
%struct.object_id = type { [32 x i8], i32 }
%struct.repository = type { ptr, ptr, ptr, ptr, ptr, %struct.strmap, %struct.strmap, %struct.repo_path_cache, ptr, ptr, ptr, ptr, %struct.repo_settings, ptr, ptr, ptr, ptr, ptr, ptr, i32, i32, i32, ptr, ptr, i32, i32, i8 }
%struct.strmap = type { %struct.hashmap, ptr, i8 }
%struct.repo_path_cache = type { ptr, ptr, ptr, ptr, ptr, ptr, ptr }
%struct.repo_settings = type { i32, i32, i32, i32, i32, i32, i32, i32, i32, i32, i32, i32, ptr, i32, i32, i32, i32, i32, i32, i32, i64, i64, i64 }
%struct.attr_check = type { i32, i32, ptr, i32, ptr, ptr }
%struct.attr_check_item = type { ptr, ptr }

@to_pack = internal global %struct.packing_data zeroinitializer, align 8
@the_repository = external global ptr, align 8
@write_bitmap_index = internal global i32 0, align 4
@progress_state = internal global ptr null, align 8
@nr_result = internal global i32 0, align 4
@.str.139 = private unnamed_addr constant [1 x i8] zeroinitializer, align 1
@git_gettext_enabled = external global i32, align 4
@sane_ctype = external constant [256 x i8], align 16
@nr_seen = internal global i32 0, align 4
@no_closure_warning = internal constant [63 x i8] c"disabling bitmap writing, as some objects are not being packed\00", align 16
@reuse_packfile_bitmap = internal global ptr null, align 8
@bitmap_git = internal global ptr null, align 8
@no_try_delta.check = internal global ptr null, align 8
@.str.152 = private unnamed_addr constant [6 x i8] c"delta\00", align 1
@git_attr__false = external constant [0 x i8], align 1

; Function Attrs: nounwind uwtable
define internal i32 @no_try_delta(ptr noundef %0) #0 {
  %2 = alloca i32, align 4
  %3 = alloca ptr, align 8
  store ptr %0, ptr %3, align 8, !tbaa !24
  %4 = load ptr, ptr @no_try_delta.check, align 8, !tbaa !261
  %5 = icmp ne ptr %4, null
  br i1 %5, label %8, label %6

6:                                                ; preds = %1
  %7 = call ptr (ptr, ...) @attr_check_initl(ptr noundef @.str.152, ptr noundef null)
  store ptr %7, ptr @no_try_delta.check, align 8, !tbaa !261
  br label %8

8:                                                ; preds = %6, %1
  %9 = load ptr, ptr @the_repository, align 8, !tbaa !11
  %10 = getelementptr inbounds nuw %struct.repository, ptr %9, i32 0, i32 15
  %11 = load ptr, ptr %10, align 8, !tbaa !263
  %12 = load ptr, ptr %3, align 8, !tbaa !24
  %13 = load ptr, ptr @no_try_delta.check, align 8, !tbaa !261
  call void @git_check_attr(ptr noundef %11, ptr noundef %12, ptr noundef %13)
  %14 = load ptr, ptr @no_try_delta.check, align 8, !tbaa !261
  %15 = getelementptr inbounds nuw %struct.attr_check, ptr %14, i32 0, i32 2
  %16 = load ptr, ptr %15, align 8, !tbaa !264
  %17 = getelementptr inbounds %struct.attr_check_item, ptr %16, i64 0
  %18 = getelementptr inbounds nuw %struct.attr_check_item, ptr %17, i32 0, i32 1
  %19 = load ptr, ptr %18, align 8, !tbaa !269
  %20 = icmp eq ptr %19, @git_attr__false
  br i1 %20, label %21, label %22

21:                                               ; preds = %8
  store i32 1, ptr %2, align 4
  br label %23

22:                                               ; preds = %8
  store i32 0, ptr %2, align 4
  br label %23

23:                                               ; preds = %22, %21
  %24 = load i32, ptr %2, align 4
  ret i32 %24
}

; Function Attrs: inlinehint nounwind uwtable
define internal i32 @pack_name_hash(ptr noundef %0) #2 {
  %2 = alloca i32, align 4
  %3 = alloca ptr, align 8
  %4 = alloca i32, align 4
  %5 = alloca i32, align 4
  %6 = alloca i32, align 4
  store ptr %0, ptr %3, align 8, !tbaa !24
  call void @llvm.lifetime.start.p0(i64 4, ptr %4) #11
  call void @llvm.lifetime.start.p0(i64 4, ptr %5) #11
  store i32 0, ptr %5, align 4, !tbaa !27
  %7 = load ptr, ptr %3, align 8, !tbaa !24
  %8 = icmp ne ptr %7, null
  br i1 %8, label %10, label %9

9:                                                ; preds = %1
  store i32 0, ptr %2, align 4
  store i32 1, ptr %6, align 4
  br label %35

10:                                               ; preds = %1
  br label %11

11:                                               ; preds = %27, %26, %10
  %12 = load ptr, ptr %3, align 8, !tbaa !24
  %13 = getelementptr inbounds nuw i8, ptr %12, i32 1
  store ptr %13, ptr %3, align 8, !tbaa !24
  %14 = load i8, ptr %12, align 1, !tbaa !26
  %15 = sext i8 %14 to i32
  store i32 %15, ptr %4, align 4, !tbaa !27
  %16 = icmp ne i32 %15, 0
  br i1 %16, label %17, label %33

17:                                               ; preds = %11
  %18 = load i32, ptr %4, align 4, !tbaa !27
  %19 = trunc i32 %18 to i8
  %20 = zext i8 %19 to i64
  %21 = getelementptr inbounds nuw [256 x i8], ptr @sane_ctype, i64 0, i64 %20
  %22 = load i8, ptr %21, align 1, !tbaa !26
  %23 = zext i8 %22 to i32
  %24 = and i32 %23, 1
  %25 = icmp ne i32 %24, 0
  br i1 %25, label %26, label %27

26:                                               ; preds = %17
  br label %11, !llvm.loop !227

27:                                               ; preds = %17
  %28 = load i32, ptr %5, align 4, !tbaa !27
  %29 = lshr i32 %28, 2
  %30 = load i32, ptr %4, align 4, !tbaa !27
  %31 = shl i32 %30, 24
  %32 = add i32 %29, %31
  store i32 %32, ptr %5, align 4, !tbaa !27
  br label %11, !llvm.loop !227

33:                                               ; preds = %11
  %34 = load i32, ptr %5, align 4, !tbaa !27
  store i32 %34, ptr %2, align 4
  store i32 1, ptr %6, align 4
  br label %35

35:                                               ; preds = %33, %9
  call void @llvm.lifetime.end.p0(i64 4, ptr %5) #11
  call void @llvm.lifetime.end.p0(i64 4, ptr %4) #11
  %36 = load i32, ptr %2, align 4
  ret i32 %36
}

; Function Attrs: inlinehint nounwind uwtable
define internal ptr @_(ptr noundef %0) #2 {
  %2 = alloca ptr, align 8
  %3 = alloca ptr, align 8
  store ptr %0, ptr %3, align 8, !tbaa !24
  %4 = load ptr, ptr %3, align 8, !tbaa !24
  %5 = load i8, ptr %4, align 1, !tbaa !26
  %6 = icmp ne i8 %5, 0
  br i1 %6, label %8, label %7

7:                                                ; preds = %1
  store ptr @.str.139, ptr %2, align 8
  br label %16

8:                                                ; preds = %1
  %9 = load i32, ptr @git_gettext_enabled, align 4, !tbaa !27
  %10 = icmp ne i32 %9, 0
  br i1 %10, label %13, label %11

11:                                               ; preds = %8
  %12 = load ptr, ptr %3, align 8, !tbaa !24
  store ptr %12, ptr %2, align 8
  br label %16

13:                                               ; preds = %8
  %14 = load ptr, ptr %3, align 8, !tbaa !24
  %15 = call ptr @dcgettext(ptr noundef null, ptr noundef %14, i32 noundef 5) #11
  store ptr %15, ptr %2, align 8
  br label %16

16:                                               ; preds = %13, %11, %7
  %17 = load ptr, ptr %2, align 8
  ret ptr %17
}

; Function Attrs: nounwind uwtable
define internal i32 @have_duplicate_entry(ptr noundef %0, i32 noundef %1) #0 {
  %3 = alloca i32, align 4
  %4 = alloca ptr, align 8
  %5 = alloca i32, align 4
  %6 = alloca ptr, align 8
  %7 = alloca i32, align 4
  store ptr %0, ptr %4, align 8, !tbaa !190
  store i32 %1, ptr %5, align 4, !tbaa !27
  call void @llvm.lifetime.start.p0(i64 8, ptr %6) #11
  %8 = load ptr, ptr @reuse_packfile_bitmap, align 8, !tbaa !243
  %9 = icmp ne ptr %8, null
  br i1 %9, label %10, label %17

10:                                               ; preds = %2
  %11 = load ptr, ptr @bitmap_git, align 8, !tbaa !245
  %12 = load ptr, ptr @reuse_packfile_bitmap, align 8, !tbaa !243
  %13 = load ptr, ptr %4, align 8, !tbaa !190
  %14 = call i32 @bitmap_walk_contains(ptr noundef %11, ptr noundef %12, ptr noundef %13)
  %15 = icmp ne i32 %14, 0
  br i1 %15, label %16, label %17

16:                                               ; preds = %10
  store i32 1, ptr %3, align 4
  store i32 1, ptr %7, align 4
  br label %44

17:                                               ; preds = %10, %2
  %18 = load ptr, ptr %4, align 8, !tbaa !190
  %19 = call ptr @packlist_find(ptr noundef @to_pack, ptr noundef %18)
  store ptr %19, ptr %6, align 8, !tbaa !9
  %20 = load ptr, ptr %6, align 8, !tbaa !9
  %21 = icmp ne ptr %20, null
  br i1 %21, label %23, label %22

22:                                               ; preds = %17
  store i32 0, ptr %3, align 4
  store i32 1, ptr %7, align 4
  br label %44

23:                                               ; preds = %17
  %24 = load i32, ptr %5, align 4, !tbaa !27
  %25 = icmp ne i32 %24, 0
  br i1 %25, label %26, label %43

26:                                               ; preds = %23
  %27 = load ptr, ptr %6, align 8, !tbaa !9
  %28 = getelementptr inbounds nuw %struct.object_entry, ptr %27, i32 0, i32 10
  %29 = load i64, ptr %28, align 8
  %30 = lshr i64 %29, 38
  %31 = and i64 %30, 1
  %32 = trunc i64 %31 to i32
  %33 = icmp ne i32 %32, 0
  br i1 %33, label %37, label %34

34:                                               ; preds = %26
  %35 = load i32, ptr @nr_result, align 4, !tbaa !27
  %36 = add i32 %35, -1
  store i32 %36, ptr @nr_result, align 4, !tbaa !27
  br label %37

37:                                               ; preds = %34, %26
  %38 = load ptr, ptr %6, align 8, !tbaa !9
  %39 = getelementptr inbounds nuw %struct.object_entry, ptr %38, i32 0, i32 10
  %40 = load i64, ptr %39, align 8
  %41 = and i64 %40, -274877906945
  %42 = or i64 %41, 274877906944
  store i64 %42, ptr %39, align 8
  br label %43

43:                                               ; preds = %37, %23
  store i32 1, ptr %3, align 4
  store i32 1, ptr %7, align 4
  br label %44

44:                                               ; preds = %43, %22, %16
  call void @llvm.lifetime.end.p0(i64 8, ptr %6) #11
  %45 = load i32, ptr %3, align 4
  ret i32 %45
}

; Function Attrs: nounwind uwtable
define internal i32 @add_object_entry(ptr noundef %0, i32 noundef %1, ptr noundef %2, i32 noundef %3) #0 {
  %5 = alloca i32, align 4
  %6 = alloca ptr, align 8
  %7 = alloca i32, align 4
  %8 = alloca ptr, align 8
  %9 = alloca i32, align 4
  %10 = alloca ptr, align 8
  %11 = alloca i64, align 8
  %12 = alloca i32, align 4
  store ptr %0, ptr %6, align 8, !tbaa !190
  store i32 %1, ptr %7, align 4, !tbaa !27
  store ptr %2, ptr %8, align 8, !tbaa !24
  store i32 %3, ptr %9, align 4, !tbaa !27
  call void @llvm.lifetime.start.p0(i64 8, ptr %10) #11
  store ptr null, ptr %10, align 8, !tbaa !15
  call void @llvm.lifetime.start.p0(i64 8, ptr %11) #11
  store i64 0, ptr %11, align 8, !tbaa !13
  %13 = load ptr, ptr @progress_state, align 8, !tbaa !79
  %14 = load i32, ptr @nr_seen, align 4, !tbaa !27
  %15 = add i32 %14, 1
  store i32 %15, ptr @nr_seen, align 4, !tbaa !27
  %16 = zext i32 %15 to i64
  call void @display_progress(ptr noundef %13, i64 noundef %16)
  %17 = load ptr, ptr %6, align 8, !tbaa !190
  %18 = load i32, ptr %9, align 4, !tbaa !27
  %19 = call i32 @have_duplicate_entry(ptr noundef %17, i32 noundef %18)
  %20 = icmp ne i32 %19, 0
  br i1 %20, label %21, label %22

21:                                               ; preds = %4
  store i32 0, ptr %5, align 4
  store i32 1, ptr %12, align 4
  br label %55

22:                                               ; preds = %4
  %23 = load ptr, ptr %6, align 8, !tbaa !190
  %24 = load i32, ptr %9, align 4, !tbaa !27
  %25 = call i32 @want_object_in_pack(ptr noundef %23, i32 noundef %24, ptr noundef %10, ptr noundef %11)
  %26 = icmp ne i32 %25, 0
  br i1 %26, label %37, label %27

27:                                               ; preds = %22
  %28 = load i32, ptr @write_bitmap_index, align 4, !tbaa !27
  %29 = icmp ne i32 %28, 0
  br i1 %29, label %30, label %36

30:                                               ; preds = %27
  %31 = load i32, ptr @write_bitmap_index, align 4, !tbaa !27
  %32 = icmp ne i32 %31, 1
  br i1 %32, label %33, label %35

33:                                               ; preds = %30
  %34 = call ptr @_(ptr noundef @no_closure_warning)
  call void (ptr, ...) @warning(ptr noundef %34)
  br label %35

35:                                               ; preds = %33, %30
  store i32 0, ptr @write_bitmap_index, align 4, !tbaa !27
  br label %36

36:                                               ; preds = %35, %27
  store i32 0, ptr %5, align 4
  store i32 1, ptr %12, align 4
  br label %55

37:                                               ; preds = %22
  %38 = load ptr, ptr %6, align 8, !tbaa !190
  %39 = load i32, ptr %7, align 4, !tbaa !27
  %40 = load ptr, ptr %8, align 8, !tbaa !24
  %41 = call i32 @pack_name_hash(ptr noundef %40)
  %42 = load i32, ptr %9, align 4, !tbaa !27
  %43 = load ptr, ptr %8, align 8, !tbaa !24
  %44 = icmp ne ptr %43, null
  br i1 %44, label %45, label %49

45:                                               ; preds = %37
  %46 = load ptr, ptr %8, align 8, !tbaa !24
  %47 = call i32 @no_try_delta(ptr noundef %46)
  %48 = icmp ne i32 %47, 0
  br label %49

49:                                               ; preds = %45, %37
  %50 = phi i1 [ false, %37 ], [ %48, %45 ]
  %51 = zext i1 %50 to i32
  %52 = load ptr, ptr %10, align 8, !tbaa !15
  %53 = load i64, ptr %11, align 8, !tbaa !13
  %54 = call ptr @create_object_entry(ptr noundef %38, i32 noundef %39, i32 noundef %41, i32 noundef %42, i32 noundef %51, ptr noundef %52, i64 noundef %53)
  store i32 1, ptr %5, align 4
  store i32 1, ptr %12, align 4
  br label %55

55:                                               ; preds = %49, %36, %21
  call void @llvm.lifetime.end.p0(i64 8, ptr %11) #11
  call void @llvm.lifetime.end.p0(i64 8, ptr %10) #11
  %56 = load i32, ptr %5, align 4
  ret i32 %56
}