; Function Attrs: nounwind uwtable
define internal fastcc void @add_object_entry(ptr noundef %0, i32 noundef range(i32 0, -2147483648) %1, ptr noundef %2, i32 noundef range(i32 0, 2) %3) unnamed_addr #0 {
  %5 = alloca ptr, align 8
  %6 = alloca i64, align 8
  call void @llvm.lifetime.start.p0(i64 8, ptr nonnull %5) #25
  store ptr null, ptr %5, align 8, !tbaa !20
  call void @llvm.lifetime.start.p0(i64 8, ptr nonnull %6) #25
  store i64 0, ptr %6, align 8, !tbaa !28
  %7 = load ptr, ptr @progress_state, align 8, !tbaa !76
  %8 = load i32, ptr @nr_seen, align 4, !tbaa !30
  %9 = add i32 %8, 1
  store i32 %9, ptr @nr_seen, align 4, !tbaa !30
  %10 = zext i32 %9 to i64
  tail call void @display_progress(ptr noundef %7, i64 noundef %10) #25
  %11 = load ptr, ptr @reuse_packfile_bitmap, align 8, !tbaa !141
  %.not.i = icmp eq ptr %11, null
  br i1 %.not.i, label %15, label %12

12:                                               ; preds = %4
  %13 = load ptr, ptr @bitmap_git, align 8, !tbaa !137
  %14 = tail call i32 @bitmap_walk_contains(ptr noundef %13, ptr noundef nonnull %11, ptr noundef %0) #25
  %.not8.i = icmp eq i32 %14, 0
  br i1 %.not8.i, label %15, label %have_duplicate_entry.exit.thread

15:                                               ; preds = %12, %4
  %16 = tail call ptr @packlist_find(ptr noundef nonnull @to_pack, ptr noundef %0) #25
  %.not9.i = icmp eq ptr %16, null
  br i1 %.not9.i, label %have_duplicate_entry.exit, label %17

17:                                               ; preds = %15
  %.not10.i = icmp eq i32 %3, 0
  br i1 %.not10.i, label %have_duplicate_entry.exit.thread, label %18

18:                                               ; preds = %17
  %19 = getelementptr inbounds nuw i8, ptr %16, i64 88
  %20 = load i64, ptr %19, align 8
  %21 = and i64 %20, 274877906944
  %.not11.i = icmp eq i64 %21, 0
  br i1 %.not11.i, label %22, label %25

22:                                               ; preds = %18
  %23 = load i32, ptr @nr_result, align 4, !tbaa !30
  %24 = add i32 %23, -1
  store i32 %24, ptr @nr_result, align 4, !tbaa !30
  br label %25

25:                                               ; preds = %22, %18
  %26 = or i64 %20, 274877906944
  store i64 %26, ptr %19, align 8
  br label %have_duplicate_entry.exit.thread

have_duplicate_entry.exit:                        ; preds = %15
  %27 = call fastcc i32 @want_object_in_pack(ptr noundef %0, i32 noundef %3, ptr noundef %5, ptr noundef %6)
  %.not12 = icmp eq i32 %27, 0
  br i1 %.not12, label %28, label %35

28:                                               ; preds = %have_duplicate_entry.exit
  %29 = load i32, ptr @write_bitmap_index, align 4, !tbaa !30
  switch i32 %29, label %30 [
    i32 0, label %have_duplicate_entry.exit.thread
    i32 1, label %34
  ]

30:                                               ; preds = %28
  %31 = load i32, ptr @git_gettext_enabled, align 4, !tbaa !30
  %.not4.i = icmp eq i32 %31, 0
  br i1 %.not4.i, label %_.exit, label %32

32:                                               ; preds = %30
  %33 = tail call ptr @dcgettext(ptr noundef null, ptr noundef nonnull @no_closure_warning, i32 noundef 5) #25
  br label %_.exit

_.exit:                                           ; preds = %30, %32
  %.0.i16 = phi ptr [ %33, %32 ], [ @no_closure_warning, %30 ]
  tail call void (ptr, ...) @warning(ptr noundef %.0.i16) #25
  br label %34

34:                                               ; preds = %28, %_.exit
  store i32 0, ptr @write_bitmap_index, align 4, !tbaa !30
  br label %have_duplicate_entry.exit.thread

35:                                               ; preds = %have_duplicate_entry.exit
  %.not.i17 = icmp eq ptr %2, null
  br i1 %.not.i17, label %pack_name_hash.exit.thread, label %.outer.i

.outer.i:                                         ; preds = %35, %44
  %.07.ph.i = phi ptr [ %39, %44 ], [ %2, %35 ]
  %.0.ph.i = phi i32 [ %48, %44 ], [ 0, %35 ]
  br label %36

36:                                               ; preds = %38, %.outer.i
  %.07.i = phi ptr [ %39, %38 ], [ %.07.ph.i, %.outer.i ]
  %37 = load i8, ptr %.07.i, align 1, !tbaa !29
  %.not10.i18 = icmp eq i8 %37, 0
  br i1 %.not10.i18, label %pack_name_hash.exit, label %38

38:                                               ; preds = %36
  %39 = getelementptr inbounds nuw i8, ptr %.07.i, i64 1
  %40 = zext i8 %37 to i64
  %41 = getelementptr inbounds nuw [256 x i8], ptr @sane_ctype, i64 0, i64 %40
  %42 = load i8, ptr %41, align 1, !tbaa !29
  %43 = and i8 %42, 1
  %.not11.i19 = icmp eq i8 %43, 0
  br i1 %.not11.i19, label %44, label %36, !llvm.loop !287

44:                                               ; preds = %38
  %45 = sext i8 %37 to i32
  %46 = lshr i32 %.0.ph.i, 2
  %47 = shl nsw i32 %45, 24
  %48 = add i32 %47, %46
  br label %.outer.i, !llvm.loop !287

pack_name_hash.exit:                              ; preds = %36
  %49 = load ptr, ptr @no_try_delta.check, align 8, !tbaa !291
  %.not.i20 = icmp eq ptr %49, null
  br i1 %.not.i20, label %50, label %no_try_delta.exit

50:                                               ; preds = %pack_name_hash.exit
  %51 = tail call ptr (ptr, ...) @attr_check_initl(ptr noundef nonnull @.str.152, ptr noundef null) #25
  store ptr %51, ptr @no_try_delta.check, align 8, !tbaa !291
  br label %no_try_delta.exit

no_try_delta.exit:                                ; preds = %pack_name_hash.exit, %50
  %52 = phi ptr [ %51, %50 ], [ %49, %pack_name_hash.exit ]
  %53 = load ptr, ptr @the_repository, align 8, !tbaa !4
  %54 = getelementptr inbounds nuw i8, ptr %53, i64 384
  %55 = load ptr, ptr %54, align 8, !tbaa !293
  tail call void @git_check_attr(ptr noundef %55, ptr noundef nonnull %2, ptr noundef %52) #25
  %56 = load ptr, ptr @no_try_delta.check, align 8, !tbaa !291
  %57 = getelementptr inbounds nuw i8, ptr %56, i64 8
  %58 = load ptr, ptr %57, align 8, !tbaa !294
  %59 = getelementptr inbounds nuw i8, ptr %58, i64 8
  %60 = load ptr, ptr %59, align 8, !tbaa !299
  %61 = icmp eq ptr %60, @git_attr__false
  %..i = zext i1 %61 to i32
  br label %pack_name_hash.exit.thread

pack_name_hash.exit.thread:                       ; preds = %35, %no_try_delta.exit
  %.06.i24 = phi i32 [ %.0.ph.i, %no_try_delta.exit ], [ 0, %35 ]
  %62 = phi i32 [ %..i, %no_try_delta.exit ], [ 0, %35 ]
  %63 = load ptr, ptr %5, align 8, !tbaa !20
  %64 = load i64, ptr %6, align 8, !tbaa !28
  tail call fastcc void @create_object_entry(ptr noundef %0, i32 noundef %1, i32 noundef %.06.i24, i32 noundef %3, i32 noundef %62, ptr noundef %63, i64 noundef %64)
  br label %have_duplicate_entry.exit.thread

have_duplicate_entry.exit.thread:                 ; preds = %17, %25, %12, %34, %28, %pack_name_hash.exit.thread
  call void @llvm.lifetime.end.p0(i64 8, ptr nonnull %6) #25
  call void @llvm.lifetime.end.p0(i64 8, ptr nonnull %5) #25
  ret void
}